#include <math.h>
#include <stdio.h>
#include <stdlib.h>
#include <string.h>

void main()
{
	int n,i,j,k,t,m;
    char a[100][100],b[100][100];
	scanf("%d",&n);
	for(i=0;i<n-1;i++)
	{
		scanf("%s",a[i]);
	    scanf("%s\n",b[i]);
	}
	scanf("%s%s",a[n-1],b[n-1]);
    for(i=0;i<n;i++)
	{
		for(j=strlen(a[i])-1,k=strlen(b[i])-1;k>=0;j--,k--)
		{  
			if(a[i][j]>=b[i][k])
			  a[i][j]='0'+a[i][j]-b[i][k];
			else 
			{ 
				a[i][j]=10+'0'+a[i][j]-b[i][k];
				if(a[i][j-1]>'0') a[i][j-1]--;
				else 
				{
					for(t=j-1;a[i][t]=='0';t--)
						a[i][t]='9';
					a[i][t]--;
				}
			}
		}
		
	    printf("%s\n",a[i]);
	}
}